; Function Attrs: mustprogress nofree norecurse nosync nounwind null_pointer_is_valid sspstrong willreturn memory(none) uwtable
define internal range(i32 0, 2) i32 @pfcp_frame_equal(ptr readnone captures(none) %0, ptr noundef %1, ptr noundef %2) #9 {
  %4 = ptrtoint ptr %2 to i64
  %5 = trunc i64 %4 to i32
  %6 = ptrtoint ptr %1 to i64
  %7 = trunc i64 %6 to i32
  %8 = icmp eq i32 %7, %5
  %9 = zext i1 %8 to i32
  ret i32 %9
}